; ModuleID = '54/531.cpp'
source_filename = "54/531.cpp"
target datalayout = "e-m:e-p270:32:32-p271:32:32-p272:64:64-i64:64-f80:128-n8:16:32:64-S128"
target triple = "x86_64-pc-linux-gnu"

%"class.std::ios_base::Init" = type { i8 }
%"class.std::basic_istream" = type { i32 (...)**, i64, %"class.std::basic_ios" }
%"class.std::basic_ios" = type { %"class.std::ios_base", %"class.std::basic_ostream"*, i8, i8, %"class.std::basic_streambuf"*, %"class.std::ctype"*, %"class.std::num_put"*, %"class.std::num_get"* }
%"class.std::ios_base" = type { i32 (...)**, i64, i64, i32, i32, i32, %"struct.std::ios_base::_Callback_list"*, %"struct.std::ios_base::_Words", [8 x %"struct.std::ios_base::_Words"], i32, %"struct.std::ios_base::_Words"*, %"class.std::locale" }
%"struct.std::ios_base::_Callback_list" = type { %"struct.std::ios_base::_Callback_list"*, void (i32, %"class.std::ios_base"*, i32)*, i32, i32 }
%"struct.std::ios_base::_Words" = type { i8*, i64 }
%"class.std::locale" = type { %"class.std::locale::_Impl"* }
%"class.std::locale::_Impl" = type { i32, %"class.std::locale::facet"**, i64, %"class.std::locale::facet"**, i8** }
%"class.std::locale::facet" = type <{ i32 (...)**, i32, [4 x i8] }>
%"class.std::basic_ostream" = type { i32 (...)**, %"class.std::basic_ios" }
%"class.std::basic_streambuf" = type { i32 (...)**, i8*, i8*, i8*, i8*, i8*, i8*, %"class.std::locale" }
%"class.std::ctype" = type <{ %"class.std::locale::facet.base", [4 x i8], %struct.__locale_struct*, i8, [7 x i8], i32*, i32*, i16*, i8, [256 x i8], [256 x i8], i8, [6 x i8] }>
%"class.std::locale::facet.base" = type <{ i32 (...)**, i32 }>
%struct.__locale_struct = type { [13 x %struct.__locale_data*], i16*, i32*, i32*, [13 x i8*] }
%struct.__locale_data = type opaque
%"class.std::num_put" = type { %"class.std::locale::facet.base", [4 x i8] }
%"class.std::num_get" = type { %"class.std::locale::facet.base", [4 x i8] }

@_ZStL8__ioinit = internal global %"class.std::ios_base::Init" zeroinitializer, align 1
@__dso_handle = external hidden global i8
@_ZSt3cin = external dso_local global %"class.std::basic_istream", align 8
@_ZSt4cout = external dso_local global %"class.std::basic_ostream", align 8
@llvm.global_ctors = appending global [1 x { i32, void ()*, i8* }] [{ i32, void ()*, i8* } { i32 65535, void ()* @_GLOBAL__sub_I_531.cpp, i8* null }]

; Function Attrs: noinline uwtable
define internal void @__cxx_global_var_init() #0 section ".text.startup" {
  call void @_ZNSt8ios_base4InitC1Ev(%"class.std::ios_base::Init"* @_ZStL8__ioinit)
  %1 = call i32 @__cxa_atexit(void (i8*)* bitcast (void (%"class.std::ios_base::Init"*)* @_ZNSt8ios_base4InitD1Ev to void (i8*)*), i8* getelementptr inbounds (%"class.std::ios_base::Init", %"class.std::ios_base::Init"* @_ZStL8__ioinit, i32 0, i32 0), i8* @__dso_handle) #3
  ret void
}

declare dso_local void @_ZNSt8ios_base4InitC1Ev(%"class.std::ios_base::Init"*) unnamed_addr #1

; Function Attrs: nounwind
declare dso_local void @_ZNSt8ios_base4InitD1Ev(%"class.std::ios_base::Init"*) unnamed_addr #2

; Function Attrs: nounwind
declare dso_local i32 @__cxa_atexit(void (i8*)*, i8*, i8*) #3

; Function Attrs: noinline norecurse uwtable
define dso_local i32 @main() #4 {
  %1 = alloca i32, align 4
  %2 = alloca i32, align 4
  %3 = alloca i32, align 4
  %4 = alloca i32, align 4
  %5 = alloca i32, align 4
  %6 = alloca i32, align 4
  store i32 0, i32* %1, align 4
  %7 = call dereferenceable(280) %"class.std::basic_istream"* @_ZNSirsERi(%"class.std::basic_istream"* @_ZSt3cin, i32* dereferenceable(4) %2)
  %8 = call dereferenceable(280) %"class.std::basic_istream"* @_ZNSirsERi(%"class.std::basic_istream"* %7, i32* dereferenceable(4) %3)
  %9 = load i32, i32* %2, align 4
  %10 = icmp eq i32 %9, 1
  br i1 %10, label %11, label %17

11:                                               ; preds = %0
  %12 = load i32, i32* %3, align 4
  %13 = icmp eq i32 %12, 0
  br i1 %13, label %14, label %17

14:                                               ; preds = %11
  %15 = call dereferenceable(272) %"class.std::basic_ostream"* @_ZNSolsEi(%"class.std::basic_ostream"* @_ZSt4cout, i32 1)
  %16 = call dereferenceable(272) %"class.std::basic_ostream"* @_ZNSolsEPFRSoS_E(%"class.std::basic_ostream"* %15, %"class.std::basic_ostream"* (%"class.std::basic_ostream"*)* @_ZSt4endlIcSt11char_traitsIcEERSt13basic_ostreamIT_T0_ES6_)
  br label %17

17:                                               ; preds = %14, %11, %0
  store i32 1, i32* %4, align 4
  br label %18

18:                                               ; preds = %64, %17
  %19 = load i32, i32* %2, align 4
  %20 = load i32, i32* %4, align 4
  %21 = mul nsw i32 %19, %20
  %22 = load i32, i32* %3, align 4
  %23 = add nsw i32 %21, %22
  %24 = load i32, i32* %2, align 4
  %25 = sub nsw i32 %24, 1
  %26 = srem i32 %23, %25
  %27 = icmp ne i32 %26, 0
  br i1 %27, label %28, label %29

28:                                               ; preds = %18
  br label %64

29:                                               ; preds = %18
  %30 = load i32, i32* %2, align 4
  store i32 %30, i32* %5, align 4
  %31 = load i32, i32* %4, align 4
  %32 = load i32, i32* %2, align 4
  %33 = mul nsw i32 %31, %32
  %34 = load i32, i32* %3, align 4
  %35 = add nsw i32 %33, %34
  store i32 %35, i32* %6, align 4
  br label %36

36:                                               ; preds = %55, %29
  %37 = load i32, i32* %5, align 4
  %38 = icmp sge i32 %37, 2
  br i1 %38, label %39, label %58

39:                                               ; preds = %36
  %40 = load i32, i32* %6, align 4
  %41 = load i32, i32* %2, align 4
  %42 = sub nsw i32 %41, 1
  %43 = srem i32 %40, %42
  %44 = icmp ne i32 %43, 0
  br i1 %44, label %45, label %46

45:                                               ; preds = %39
  br label %58

46:                                               ; preds = %39
  %47 = load i32, i32* %6, align 4
  %48 = load i32, i32* %2, align 4
  %49 = sub nsw i32 %48, 1
  %50 = sdiv i32 %47, %49
  %51 = load i32, i32* %2, align 4
  %52 = mul nsw i32 %50, %51
  %53 = load i32, i32* %3, align 4
  %54 = add nsw i32 %52, %53
  store i32 %54, i32* %6, align 4
  br label %55

55:                                               ; preds = %46
  %56 = load i32, i32* %5, align 4
  %57 = add nsw i32 %56, -1
  store i32 %57, i32* %5, align 4
  br label %36

58:                                               ; preds = %45, %36
  br label %59

59:                                               ; preds = %58
  %60 = load i32, i32* %5, align 4
  %61 = icmp eq i32 %60, 1
  br i1 %61, label %62, label %63

62:                                               ; preds = %59
  br label %67

63:                                               ; preds = %59
  br label %64

64:                                               ; preds = %63, %28
  %65 = load i32, i32* %4, align 4
  %66 = add nsw i32 %65, 1
  store i32 %66, i32* %4, align 4
  br label %18

67:                                               ; preds = %62
  %68 = load i32, i32* %6, align 4
  %69 = call dereferenceable(272) %"class.std::basic_ostream"* @_ZNSolsEi(%"class.std::basic_ostream"* @_ZSt4cout, i32 %68)
  %70 = call dereferenceable(272) %"class.std::basic_ostream"* @_ZNSolsEPFRSoS_E(%"class.std::basic_ostream"* %69, %"class.std::basic_ostream"* (%"class.std::basic_ostream"*)* @_ZSt4endlIcSt11char_traitsIcEERSt13basic_ostreamIT_T0_ES6_)
  ret i32 0
}

declare dso_local dereferenceable(280) %"class.std::basic_istream"* @_ZNSirsERi(%"class.std::basic_istream"*, i32* dereferenceable(4)) #1

declare dso_local dereferenceable(272) %"class.std::basic_ostream"* @_ZNSolsEi(%"class.std::basic_ostream"*, i32) #1

declare dso_local dereferenceable(272) %"class.std::basic_ostream"* @_ZNSolsEPFRSoS_E(%"class.std::basic_ostream"*, %"class.std::basic_ostream"* (%"class.std::basic_ostream"*)*) #1

declare dso_local dereferenceable(272) %"class.std::basic_ostream"* @_ZSt4endlIcSt11char_traitsIcEERSt13basic_ostreamIT_T0_ES6_(%"class.std::basic_ostream"* dereferenceable(272)) #1

; Function Attrs: noinline uwtable
define internal void @_GLOBAL__sub_I_531.cpp() #0 section ".text.startup" {
  call void @__cxx_global_var_init()
  ret void
}


!llvm.module.flags = !{!0}
!llvm.ident = !{!1}

!0 = !{i32 1, !"wchar_size", i32 4}
!1 = !{!"clang version 10.0.0-4ubuntu1 "}
